ARM GAS  C:\Users\lenovo\AppData\Local\Temp\cchf8eNQ.s 			page 1


   1              		.cpu cortex-m4
   2              		.arch armv7e-m
   3              		.fpu fpv4-sp-d16
   4              		.eabi_attribute 27, 1
   5              		.eabi_attribute 28, 1
   6              		.eabi_attribute 20, 1
   7              		.eabi_attribute 21, 1
   8              		.eabi_attribute 23, 3
   9              		.eabi_attribute 24, 1
  10              		.eabi_attribute 25, 1
  11              		.eabi_attribute 26, 1
  12              		.eabi_attribute 30, 1
  13              		.eabi_attribute 34, 1
  14              		.eabi_attribute 18, 4
  15              		.file	"can_recv.c"
  16              		.text
  17              	.Ltext0:
  18              		.cfi_sections	.debug_frame
  19              		.section	.text.CanRecv_RxCallBack,"ax",%progbits
  20              		.align	1
  21              		.global	CanRecv_RxCallBack
  22              		.syntax unified
  23              		.thumb
  24              		.thumb_func
  26              	CanRecv_RxCallBack:
  27              	.LVL0:
  28              	.LFB5:
  29              		.file 1 "Core/HAL/driver/com/can_recv.c"
   1:Core/HAL/driver/com/can_recv.c **** #include "can_recv.h"
   2:Core/HAL/driver/com/can_recv.c **** 
   3:Core/HAL/driver/com/can_recv.c **** #include "bsp_can.h"
   4:Core/HAL/driver/com/can_recv.c **** #include "cvector.h"
   5:Core/HAL/driver/com/can_recv.c **** #include "soft_crc.h"
   6:Core/HAL/driver/com/can_recv.c **** #include "stdio.h"
   7:Core/HAL/driver/com/can_recv.c **** 
   8:Core/HAL/driver/com/can_recv.c **** cvector* can_recv_instances;
   9:Core/HAL/driver/com/can_recv.c **** void CanRecv_RxCallBack(uint8_t can_id, uint32_t identifier, uint8_t* data, uint32_t len);
  10:Core/HAL/driver/com/can_recv.c **** 
  11:Core/HAL/driver/com/can_recv.c **** void CanRecv_Driver_Init() {
  12:Core/HAL/driver/com/can_recv.c ****     can_recv_instances = cvector_create(sizeof(can_recv*));
  13:Core/HAL/driver/com/can_recv.c ****     BSP_CAN_RegisterRxCallback(0, CanRecv_RxCallBack);
  14:Core/HAL/driver/com/can_recv.c ****     BSP_CAN_RegisterRxCallback(1, CanRecv_RxCallBack);
  15:Core/HAL/driver/com/can_recv.c **** }
  16:Core/HAL/driver/com/can_recv.c **** 
  17:Core/HAL/driver/com/can_recv.c **** can_recv* CanRecv_Create(can_recv_config* config) {
  18:Core/HAL/driver/com/can_recv.c ****     can_recv* obj = (can_recv*)malloc(sizeof(can_recv));
  19:Core/HAL/driver/com/can_recv.c ****     memset(obj, 0, sizeof(can_recv));
  20:Core/HAL/driver/com/can_recv.c ****     obj->config = *config;
  21:Core/HAL/driver/com/can_recv.c ****     obj->data_rx.len = obj->config.data_len;
  22:Core/HAL/driver/com/can_recv.c ****     obj->data_rx.data = (uint8_t*)malloc(obj->config.data_len);
  23:Core/HAL/driver/com/can_recv.c ****     memset(obj->data_rx.data, 0, obj->config.data_len);
  24:Core/HAL/driver/com/can_recv.c ****     obj->buf_len = obj->config.data_len + 5;
  25:Core/HAL/driver/com/can_recv.c ****     obj->rxbuf = (uint8_t*)malloc(obj->buf_len);
  26:Core/HAL/driver/com/can_recv.c ****     obj->recv_len = 0;
  27:Core/HAL/driver/com/can_recv.c ****     obj->recv_status = 0;
  28:Core/HAL/driver/com/can_recv.c ****     obj->data_updated = 0;
  29:Core/HAL/driver/com/can_recv.c ****     cvector_pushback(can_recv_instances, &obj);
ARM GAS  C:\Users\lenovo\AppData\Local\Temp\cchf8eNQ.s 			page 2


  30:Core/HAL/driver/com/can_recv.c ****     BSP_CAN_AddFilter(obj->config.bsp_can_index, obj->config.can_identifier);
  31:Core/HAL/driver/com/can_recv.c ****     obj->monitor = Monitor_Register(obj->config.lost_callback, 20, obj);
  32:Core/HAL/driver/com/can_recv.c ****     return obj;
  33:Core/HAL/driver/com/can_recv.c **** }
  34:Core/HAL/driver/com/can_recv.c **** 
  35:Core/HAL/driver/com/can_recv.c **** void CanRecv_RxCallBack(uint8_t can_id, uint32_t identifier, uint8_t* data, uint32_t len) {
  30              		.loc 1 35 91 view -0
  31              		.cfi_startproc
  32              		@ args = 0, pretend = 0, frame = 0
  33              		@ frame_needed = 0, uses_anonymous_args = 0
  34              		.loc 1 35 91 is_stmt 0 view .LVU1
  35 0000 2DE9F843 		push	{r3, r4, r5, r6, r7, r8, r9, lr}
  36              	.LCFI0:
  37              		.cfi_def_cfa_offset 32
  38              		.cfi_offset 3, -32
  39              		.cfi_offset 4, -28
  40              		.cfi_offset 5, -24
  41              		.cfi_offset 6, -20
  42              		.cfi_offset 7, -16
  43              		.cfi_offset 8, -12
  44              		.cfi_offset 9, -8
  45              		.cfi_offset 14, -4
  46 0004 0646     		mov	r6, r0
  47 0006 0F46     		mov	r7, r1
  48 0008 9046     		mov	r8, r2
  49 000a 9946     		mov	r9, r3
  36:Core/HAL/driver/com/can_recv.c ****     for (size_t i = 0; i < can_recv_instances->cv_len; ++i) {
  50              		.loc 1 36 5 is_stmt 1 view .LVU2
  51              	.LBB2:
  52              		.loc 1 36 10 view .LVU3
  53              	.LVL1:
  54              		.loc 1 36 17 is_stmt 0 view .LVU4
  55 000c 0024     		movs	r4, #0
  56              		.loc 1 36 5 view .LVU5
  57 000e 37E0     		b	.L2
  58              	.LVL2:
  59              	.L10:
  60              	.LBB3:
  37:Core/HAL/driver/com/can_recv.c ****         can_recv* now = *(can_recv**)cvector_val_at(can_recv_instances, i);
  38:Core/HAL/driver/com/can_recv.c ****         if (now->config.bsp_can_index == can_id && now->config.can_identifier == identifier) {
  39:Core/HAL/driver/com/can_recv.c ****             if (data[0] == 's') {
  40:Core/HAL/driver/com/can_recv.c ****                 now->recv_status = 1;
  61              		.loc 1 40 17 is_stmt 1 view .LVU6
  62              		.loc 1 40 34 is_stmt 0 view .LVU7
  63 0010 0123     		movs	r3, #1
  64 0012 6B75     		strb	r3, [r5, #21]
  65 0014 47E0     		b	.L4
  66              	.L6:
  41:Core/HAL/driver/com/can_recv.c ****             }
  42:Core/HAL/driver/com/can_recv.c ****             if (now->recv_status) {
  43:Core/HAL/driver/com/can_recv.c ****                 if (now->recv_len + len > now->buf_len) {
  44:Core/HAL/driver/com/can_recv.c ****                     now->recv_status = 0;
  45:Core/HAL/driver/com/can_recv.c ****                     now->recv_len = 0;
  46:Core/HAL/driver/com/can_recv.c ****                     return;
  47:Core/HAL/driver/com/can_recv.c ****                 }
  48:Core/HAL/driver/com/can_recv.c ****                 memcpy(now->rxbuf + now->recv_len, data, len);
  67              		.loc 1 48 17 is_stmt 1 view .LVU8
ARM GAS  C:\Users\lenovo\AppData\Local\Temp\cchf8eNQ.s 			page 3


  68              		.loc 1 48 27 is_stmt 0 view .LVU9
  69 0016 D5F81700 		ldr	r0, [r5, #23]	@ unaligned
  70              		.loc 1 48 17 view .LVU10
  71 001a 4A46     		mov	r2, r9
  72 001c 4146     		mov	r1, r8
  73 001e 1844     		add	r0, r0, r3
  74 0020 FFF7FEFF 		bl	memcpy
  75              	.LVL3:
  49:Core/HAL/driver/com/can_recv.c ****                 now->recv_len += len;
  76              		.loc 1 49 17 is_stmt 1 view .LVU11
  77              		.loc 1 49 31 is_stmt 0 view .LVU12
  78 0024 2B7D     		ldrb	r3, [r5, #20]	@ zero_extendqisi2
  79 0026 4B44     		add	r3, r3, r9
  80 0028 DBB2     		uxtb	r3, r3
  81 002a 2B75     		strb	r3, [r5, #20]
  50:Core/HAL/driver/com/can_recv.c ****                 if (now->rxbuf[now->recv_len - 1] == 'e' && now->recv_len == now->buf_len) {
  82              		.loc 1 50 17 is_stmt 1 view .LVU13
  83              		.loc 1 50 24 is_stmt 0 view .LVU14
  84 002c D5F81700 		ldr	r0, [r5, #23]	@ unaligned
  85              		.loc 1 50 31 view .LVU15
  86 0030 C218     		adds	r2, r0, r3
  87 0032 12F8012C 		ldrb	r2, [r2, #-1]	@ zero_extendqisi2
  88              		.loc 1 50 20 view .LVU16
  89 0036 652A     		cmp	r2, #101
  90 0038 40D1     		bne	.L1
  91              		.loc 1 50 81 discriminator 1 view .LVU17
  92 003a E97C     		ldrb	r1, [r5, #19]	@ zero_extendqisi2
  93              		.loc 1 50 58 discriminator 1 view .LVU18
  94 003c 8B42     		cmp	r3, r1
  95 003e 3DD1     		bne	.L1
  51:Core/HAL/driver/com/can_recv.c ****                     if (CheckVaild(now->rxbuf + 1, now->buf_len - 2)) {
  96              		.loc 1 51 21 is_stmt 1 view .LVU19
  97              		.loc 1 51 25 is_stmt 0 view .LVU20
  98 0040 0239     		subs	r1, r1, #2
  99 0042 0130     		adds	r0, r0, #1
 100 0044 FFF7FEFF 		bl	CheckVaild
 101              	.LVL4:
 102              		.loc 1 51 24 view .LVU21
 103 0048 0028     		cmp	r0, #0
 104 004a 37D0     		beq	.L1
  52:Core/HAL/driver/com/can_recv.c ****                         BufferToData(now->rxbuf + 1, &now->data_rx);
 105              		.loc 1 52 25 is_stmt 1 view .LVU22
 106              		.loc 1 52 41 is_stmt 0 view .LVU23
 107 004c D5F81700 		ldr	r0, [r5, #23]	@ unaligned
 108              		.loc 1 52 25 view .LVU24
 109 0050 05F10C01 		add	r1, r5, #12
 110 0054 0130     		adds	r0, r0, #1
 111 0056 FFF7FEFF 		bl	BufferToData
 112              	.LVL5:
  53:Core/HAL/driver/com/can_recv.c ****                         now->recv_status = 0;
 113              		.loc 1 53 25 is_stmt 1 view .LVU25
 114              		.loc 1 53 42 is_stmt 0 view .LVU26
 115 005a 0023     		movs	r3, #0
 116 005c 6B75     		strb	r3, [r5, #21]
  54:Core/HAL/driver/com/can_recv.c ****                         now->recv_len = 0;
 117              		.loc 1 54 25 is_stmt 1 view .LVU27
 118              		.loc 1 54 39 is_stmt 0 view .LVU28
ARM GAS  C:\Users\lenovo\AppData\Local\Temp\cchf8eNQ.s 			page 4


 119 005e 2B75     		strb	r3, [r5, #20]
  55:Core/HAL/driver/com/can_recv.c ****                         now->data_updated = 1;
 120              		.loc 1 55 25 is_stmt 1 view .LVU29
 121              		.loc 1 55 43 is_stmt 0 view .LVU30
 122 0060 0123     		movs	r3, #1
 123 0062 AB75     		strb	r3, [r5, #22]
  56:Core/HAL/driver/com/can_recv.c ****                         FrameRateStatistics(&now->fps);
 124              		.loc 1 56 25 is_stmt 1 view .LVU31
 125 0064 05F11F00 		add	r0, r5, #31
 126 0068 FFF7FEFF 		bl	FrameRateStatistics
 127              	.LVL6:
  57:Core/HAL/driver/com/can_recv.c ****                         now->monitor->reset(now->monitor);
 128              		.loc 1 57 25 view .LVU32
 129              		.loc 1 57 28 is_stmt 0 view .LVU33
 130 006c D5F81B00 		ldr	r0, [r5, #27]	@ unaligned
 131              		.loc 1 57 37 view .LVU34
 132 0070 C368     		ldr	r3, [r0, #12]	@ unaligned
 133              		.loc 1 57 25 view .LVU35
 134 0072 9847     		blx	r3
 135              	.LVL7:
  58:Core/HAL/driver/com/can_recv.c ****                         if (now->config.notify_func != NULL) {
 136              		.loc 1 58 25 is_stmt 1 view .LVU36
 137              		.loc 1 58 40 is_stmt 0 view .LVU37
 138 0074 6B68     		ldr	r3, [r5, #4]	@ unaligned
 139              		.loc 1 58 28 view .LVU38
 140 0076 0BB3     		cbz	r3, .L1
  59:Core/HAL/driver/com/can_recv.c ****                             now->config.notify_func(now);
 141              		.loc 1 59 29 is_stmt 1 view .LVU39
 142 0078 2846     		mov	r0, r5
 143 007a 9847     		blx	r3
 144              	.LVL8:
  60:Core/HAL/driver/com/can_recv.c ****                         }
  61:Core/HAL/driver/com/can_recv.c ****                     }
  62:Core/HAL/driver/com/can_recv.c ****                 }
  63:Core/HAL/driver/com/can_recv.c ****             }
  64:Core/HAL/driver/com/can_recv.c ****             return;
 145              		.loc 1 64 13 view .LVU40
 146 007c 1EE0     		b	.L1
 147              	.L3:
 148              		.loc 1 64 13 is_stmt 0 view .LVU41
 149              	.LBE3:
  36:Core/HAL/driver/com/can_recv.c ****         can_recv* now = *(can_recv**)cvector_val_at(can_recv_instances, i);
 150              		.loc 1 36 56 is_stmt 1 discriminator 2 view .LVU42
 151 007e 0134     		adds	r4, r4, #1
 152              	.LVL9:
 153              	.L2:
  36:Core/HAL/driver/com/can_recv.c ****         can_recv* now = *(can_recv**)cvector_val_at(can_recv_instances, i);
 154              		.loc 1 36 24 discriminator 1 view .LVU43
  36:Core/HAL/driver/com/can_recv.c ****         can_recv* now = *(can_recv**)cvector_val_at(can_recv_instances, i);
 155              		.loc 1 36 46 is_stmt 0 discriminator 1 view .LVU44
 156 0080 0F4B     		ldr	r3, .L11
 157 0082 1868     		ldr	r0, [r3]
 158 0084 4568     		ldr	r5, [r0, #4]	@ unaligned
  36:Core/HAL/driver/com/can_recv.c ****         can_recv* now = *(can_recv**)cvector_val_at(can_recv_instances, i);
 159              		.loc 1 36 5 discriminator 1 view .LVU45
 160 0086 A542     		cmp	r5, r4
 161 0088 18D9     		bls	.L1
ARM GAS  C:\Users\lenovo\AppData\Local\Temp\cchf8eNQ.s 			page 5


 162              	.LBB4:
  37:Core/HAL/driver/com/can_recv.c ****         if (now->config.bsp_can_index == can_id && now->config.can_identifier == identifier) {
 163              		.loc 1 37 9 is_stmt 1 view .LVU46
  37:Core/HAL/driver/com/can_recv.c ****         if (now->config.bsp_can_index == can_id && now->config.can_identifier == identifier) {
 164              		.loc 1 37 38 is_stmt 0 view .LVU47
 165 008a 2146     		mov	r1, r4
 166 008c FFF7FEFF 		bl	cvector_val_at
 167              	.LVL10:
  37:Core/HAL/driver/com/can_recv.c ****         if (now->config.bsp_can_index == can_id && now->config.can_identifier == identifier) {
 168              		.loc 1 37 19 view .LVU48
 169 0090 0568     		ldr	r5, [r0]
 170              	.LVL11:
  38:Core/HAL/driver/com/can_recv.c ****             if (data[0] == 's') {
 171              		.loc 1 38 9 is_stmt 1 view .LVU49
  38:Core/HAL/driver/com/can_recv.c ****             if (data[0] == 's') {
 172              		.loc 1 38 24 is_stmt 0 view .LVU50
 173 0092 2B78     		ldrb	r3, [r5]	@ zero_extendqisi2
  38:Core/HAL/driver/com/can_recv.c ****             if (data[0] == 's') {
 174              		.loc 1 38 12 view .LVU51
 175 0094 B342     		cmp	r3, r6
 176 0096 F2D1     		bne	.L3
  38:Core/HAL/driver/com/can_recv.c ****             if (data[0] == 's') {
 177              		.loc 1 38 63 discriminator 1 view .LVU52
 178 0098 6B88     		ldrh	r3, [r5, #2]	@ unaligned
  38:Core/HAL/driver/com/can_recv.c ****             if (data[0] == 's') {
 179              		.loc 1 38 49 discriminator 1 view .LVU53
 180 009a BB42     		cmp	r3, r7
 181 009c EFD1     		bne	.L3
  39:Core/HAL/driver/com/can_recv.c ****                 now->recv_status = 1;
 182              		.loc 1 39 13 is_stmt 1 view .LVU54
  39:Core/HAL/driver/com/can_recv.c ****                 now->recv_status = 1;
 183              		.loc 1 39 21 is_stmt 0 view .LVU55
 184 009e 98F80030 		ldrb	r3, [r8]	@ zero_extendqisi2
  39:Core/HAL/driver/com/can_recv.c ****                 now->recv_status = 1;
 185              		.loc 1 39 16 view .LVU56
 186 00a2 732B     		cmp	r3, #115
 187 00a4 B4D0     		beq	.L10
 188              	.L4:
  42:Core/HAL/driver/com/can_recv.c ****                 if (now->recv_len + len > now->buf_len) {
 189              		.loc 1 42 13 is_stmt 1 view .LVU57
  42:Core/HAL/driver/com/can_recv.c ****                 if (now->recv_len + len > now->buf_len) {
 190              		.loc 1 42 20 is_stmt 0 view .LVU58
 191 00a6 6B7D     		ldrb	r3, [r5, #21]	@ zero_extendqisi2
  42:Core/HAL/driver/com/can_recv.c ****                 if (now->recv_len + len > now->buf_len) {
 192              		.loc 1 42 16 view .LVU59
 193 00a8 43B1     		cbz	r3, .L1
  43:Core/HAL/driver/com/can_recv.c ****                     now->recv_status = 0;
 194              		.loc 1 43 17 is_stmt 1 view .LVU60
  43:Core/HAL/driver/com/can_recv.c ****                     now->recv_status = 0;
 195              		.loc 1 43 24 is_stmt 0 view .LVU61
 196 00aa 2B7D     		ldrb	r3, [r5, #20]	@ zero_extendqisi2
  43:Core/HAL/driver/com/can_recv.c ****                     now->recv_status = 0;
 197              		.loc 1 43 35 view .LVU62
 198 00ac 03EB0901 		add	r1, r3, r9
  43:Core/HAL/driver/com/can_recv.c ****                     now->recv_status = 0;
 199              		.loc 1 43 46 view .LVU63
 200 00b0 EA7C     		ldrb	r2, [r5, #19]	@ zero_extendqisi2
ARM GAS  C:\Users\lenovo\AppData\Local\Temp\cchf8eNQ.s 			page 6


  43:Core/HAL/driver/com/can_recv.c ****                     now->recv_status = 0;
 201              		.loc 1 43 20 view .LVU64
 202 00b2 9142     		cmp	r1, r2
 203 00b4 AFD9     		bls	.L6
  44:Core/HAL/driver/com/can_recv.c ****                     now->recv_len = 0;
 204              		.loc 1 44 21 is_stmt 1 view .LVU65
  44:Core/HAL/driver/com/can_recv.c ****                     now->recv_len = 0;
 205              		.loc 1 44 38 is_stmt 0 view .LVU66
 206 00b6 0023     		movs	r3, #0
 207 00b8 6B75     		strb	r3, [r5, #21]
  45:Core/HAL/driver/com/can_recv.c ****                     return;
 208              		.loc 1 45 21 is_stmt 1 view .LVU67
  45:Core/HAL/driver/com/can_recv.c ****                     return;
 209              		.loc 1 45 35 is_stmt 0 view .LVU68
 210 00ba 2B75     		strb	r3, [r5, #20]
  46:Core/HAL/driver/com/can_recv.c ****                 }
 211              		.loc 1 46 21 is_stmt 1 view .LVU69
 212              	.LVL12:
 213              	.L1:
  46:Core/HAL/driver/com/can_recv.c ****                 }
 214              		.loc 1 46 21 is_stmt 0 view .LVU70
 215              	.LBE4:
 216              	.LBE2:
  65:Core/HAL/driver/com/can_recv.c ****         }
  66:Core/HAL/driver/com/can_recv.c ****     }
  67:Core/HAL/driver/com/can_recv.c **** }...
 217              		.loc 1 67 1 view .LVU71
 218 00bc BDE8F883 		pop	{r3, r4, r5, r6, r7, r8, r9, pc}
 219              	.LVL13:
 220              	.L12:
 221              		.loc 1 67 1 view .LVU72
 222              		.align	2
 223              	.L11:
 224 00c0 00000000 		.word	.LANCHOR0
 225              		.cfi_endproc
 226              	.LFE5:
 228              		.section	.text.CanRecv_Driver_Init,"ax",%progbits
 229              		.align	1
 230              		.global	CanRecv_Driver_Init
 231              		.syntax unified
 232              		.thumb
 233              		.thumb_func
 235              	CanRecv_Driver_Init:
 236              	.LFB3:
  11:Core/HAL/driver/com/can_recv.c **** void CanRecv_Driver_Init() {
 237              		.loc 1 11 28 is_stmt 1 view -0
 238              		.cfi_startproc
 239              		@ args = 0, pretend = 0, frame = 0
 240              		@ frame_needed = 0, uses_anonymous_args = 0
 241 0000 10B5     		push	{r4, lr}
 242              	.LCFI1:
 243              		.cfi_def_cfa_offset 8
 244              		.cfi_offset 4, -8
 245              		.cfi_offset 14, -4
  12:Core/HAL/driver/com/can_recv.c ****     can_recv_instances = cvector_create(sizeof(can_recv*));
 246              		.loc 1 12 5 view .LVU74
  12:Core/HAL/driver/com/can_recv.c ****     can_recv_instances = cvector_create(sizeof(can_recv*));
ARM GAS  C:\Users\lenovo\AppData\Local\Temp\cchf8eNQ.s 			page 7


 247              		.loc 1 12 26 is_stmt 0 view .LVU75
 248 0002 0420     		movs	r0, #4
 249 0004 FFF7FEFF 		bl	cvector_create
 250              	.LVL14:
  12:Core/HAL/driver/com/can_recv.c ****     can_recv_instances = cvector_create(sizeof(can_recv*));
 251              		.loc 1 12 24 view .LVU76
 252 0008 054B     		ldr	r3, .L15
 253 000a 1860     		str	r0, [r3]
  13:Core/HAL/driver/com/can_recv.c ****     BSP_CAN_RegisterRxCallback(0, CanRecv_RxCallBack);
 254              		.loc 1 13 5 is_stmt 1 view .LVU77
 255 000c 054C     		ldr	r4, .L15+4
 256 000e 2146     		mov	r1, r4
 257 0010 0020     		movs	r0, #0
 258 0012 FFF7FEFF 		bl	BSP_CAN_RegisterRxCallback
 259              	.LVL15:
  14:Core/HAL/driver/com/can_recv.c ****     BSP_CAN_RegisterRxCallback(1, CanRecv_RxCallBack);
 260              		.loc 1 14 5 view .LVU78
 261 0016 2146     		mov	r1, r4
 262 0018 0120     		movs	r0, #1
 263 001a FFF7FEFF 		bl	BSP_CAN_RegisterRxCallback
 264              	.LVL16:
  15:Core/HAL/driver/com/can_recv.c **** }
 265              		.loc 1 15 1 is_stmt 0 view .LVU79
 266 001e 10BD     		pop	{r4, pc}
 267              	.L16:
 268              		.align	2
 269              	.L15:
 270 0020 00000000 		.word	.LANCHOR0
 271 0024 00000000 		.word	CanRecv_RxCallBack
 272              		.cfi_endproc
 273              	.LFE3:
 275              		.section	.text.CanRecv_Create,"ax",%progbits
 276              		.align	1
 277              		.global	CanRecv_Create
 278              		.syntax unified
 279              		.thumb
 280              		.thumb_func
 282              	CanRecv_Create:
 283              	.LVL17:
 284              	.LFB4:
  17:Core/HAL/driver/com/can_recv.c **** can_recv* CanRecv_Create(can_recv_config* config) {
 285              		.loc 1 17 51 is_stmt 1 view -0
 286              		.cfi_startproc
 287              		@ args = 0, pretend = 0, frame = 8
 288              		@ frame_needed = 0, uses_anonymous_args = 0
  17:Core/HAL/driver/com/can_recv.c **** can_recv* CanRecv_Create(can_recv_config* config) {
 289              		.loc 1 17 51 is_stmt 0 view .LVU81
 290 0000 30B5     		push	{r4, r5, lr}
 291              	.LCFI2:
 292              		.cfi_def_cfa_offset 12
 293              		.cfi_offset 4, -12
 294              		.cfi_offset 5, -8
 295              		.cfi_offset 14, -4
 296 0002 83B0     		sub	sp, sp, #12
 297              	.LCFI3:
 298              		.cfi_def_cfa_offset 24
 299 0004 0446     		mov	r4, r0
ARM GAS  C:\Users\lenovo\AppData\Local\Temp\cchf8eNQ.s 			page 8


  18:Core/HAL/driver/com/can_recv.c ****     can_recv* obj = (can_recv*)malloc(sizeof(can_recv));
 300              		.loc 1 18 5 is_stmt 1 view .LVU82
  18:Core/HAL/driver/com/can_recv.c ****     can_recv* obj = (can_recv*)malloc(sizeof(can_recv));
 301              		.loc 1 18 32 is_stmt 0 view .LVU83
 302 0006 2B20     		movs	r0, #43
 303              	.LVL18:
  18:Core/HAL/driver/com/can_recv.c ****     can_recv* obj = (can_recv*)malloc(sizeof(can_recv));
 304              		.loc 1 18 32 view .LVU84
 305 0008 FFF7FEFF 		bl	malloc
 306              	.LVL19:
  18:Core/HAL/driver/com/can_recv.c ****     can_recv* obj = (can_recv*)malloc(sizeof(can_recv));
 307              		.loc 1 18 15 view .LVU85
 308 000c 0190     		str	r0, [sp, #4]
  19:Core/HAL/driver/com/can_recv.c ****     memset(obj, 0, sizeof(can_recv));
 309              		.loc 1 19 5 is_stmt 1 view .LVU86
 310 000e 2B22     		movs	r2, #43
 311 0010 0021     		movs	r1, #0
 312 0012 FFF7FEFF 		bl	memset
 313              	.LVL20:
  20:Core/HAL/driver/com/can_recv.c ****     obj->config = *config;
 314              		.loc 1 20 5 view .LVU87
  20:Core/HAL/driver/com/can_recv.c ****     obj->config = *config;
 315              		.loc 1 20 8 is_stmt 0 view .LVU88
 316 0016 019B     		ldr	r3, [sp, #4]
  20:Core/HAL/driver/com/can_recv.c ****     obj->config = *config;
 317              		.loc 1 20 17 view .LVU89
 318 0018 2068     		ldr	r0, [r4]	@ unaligned
 319 001a 6168     		ldr	r1, [r4, #4]	@ unaligned
 320 001c A268     		ldr	r2, [r4, #8]	@ unaligned
 321 001e 1860     		str	r0, [r3]	@ unaligned
 322 0020 5960     		str	r1, [r3, #4]	@ unaligned
 323 0022 9A60     		str	r2, [r3, #8]	@ unaligned
  21:Core/HAL/driver/com/can_recv.c ****     obj->data_rx.len = obj->config.data_len;
 324              		.loc 1 21 5 is_stmt 1 view .LVU90
  21:Core/HAL/driver/com/can_recv.c ****     obj->data_rx.len = obj->config.data_len;
 325              		.loc 1 21 27 is_stmt 0 view .LVU91
 326 0024 019D     		ldr	r5, [sp, #4]
  21:Core/HAL/driver/com/can_recv.c ****     obj->data_rx.len = obj->config.data_len;
 327              		.loc 1 21 35 view .LVU92
 328 0026 6C78     		ldrb	r4, [r5, #1]	@ zero_extendqisi2
 329              	.LVL21:
  21:Core/HAL/driver/com/can_recv.c ****     obj->data_rx.len = obj->config.data_len;
 330              		.loc 1 21 22 view .LVU93
 331 0028 2C73     		strb	r4, [r5, #12]
  22:Core/HAL/driver/com/can_recv.c ****     obj->data_rx.data = (uint8_t*)malloc(obj->config.data_len);
 332              		.loc 1 22 5 is_stmt 1 view .LVU94
  22:Core/HAL/driver/com/can_recv.c ****     obj->data_rx.data = (uint8_t*)malloc(obj->config.data_len);
 333              		.loc 1 22 35 is_stmt 0 view .LVU95
 334 002a 2046     		mov	r0, r4
 335 002c FFF7FEFF 		bl	malloc
 336              	.LVL22:
  22:Core/HAL/driver/com/can_recv.c ****     obj->data_rx.data = (uint8_t*)malloc(obj->config.data_len);
 337              		.loc 1 22 23 view .LVU96
 338 0030 C5F80D00 		str	r0, [r5, #13]	@ unaligned
  23:Core/HAL/driver/com/can_recv.c ****     memset(obj->data_rx.data, 0, obj->config.data_len);
 339              		.loc 1 23 5 is_stmt 1 view .LVU97
 340 0034 2246     		mov	r2, r4
ARM GAS  C:\Users\lenovo\AppData\Local\Temp\cchf8eNQ.s 			page 9


 341 0036 0021     		movs	r1, #0
 342 0038 FFF7FEFF 		bl	memset
 343              	.LVL23:
  24:Core/HAL/driver/com/can_recv.c ****     obj->buf_len = obj->config.data_len + 5;
 344              		.loc 1 24 5 view .LVU98
  24:Core/HAL/driver/com/can_recv.c ****     obj->buf_len = obj->config.data_len + 5;
 345              		.loc 1 24 23 is_stmt 0 view .LVU99
 346 003c 019C     		ldr	r4, [sp, #4]
  24:Core/HAL/driver/com/can_recv.c ****     obj->buf_len = obj->config.data_len + 5;
 347              		.loc 1 24 31 view .LVU100
 348 003e 6078     		ldrb	r0, [r4, #1]	@ zero_extendqisi2
  24:Core/HAL/driver/com/can_recv.c ****     obj->buf_len = obj->config.data_len + 5;
 349              		.loc 1 24 41 view .LVU101
 350 0040 0530     		adds	r0, r0, #5
 351 0042 C0B2     		uxtb	r0, r0
  24:Core/HAL/driver/com/can_recv.c ****     obj->buf_len = obj->config.data_len + 5;
 352              		.loc 1 24 18 view .LVU102
 353 0044 E074     		strb	r0, [r4, #19]
  25:Core/HAL/driver/com/can_recv.c ****     obj->rxbuf = (uint8_t*)malloc(obj->buf_len);
 354              		.loc 1 25 5 is_stmt 1 view .LVU103
  25:Core/HAL/driver/com/can_recv.c ****     obj->rxbuf = (uint8_t*)malloc(obj->buf_len);
 355              		.loc 1 25 28 is_stmt 0 view .LVU104
 356 0046 FFF7FEFF 		bl	malloc
 357              	.LVL24:
  25:Core/HAL/driver/com/can_recv.c ****     obj->rxbuf = (uint8_t*)malloc(obj->buf_len);
 358              		.loc 1 25 16 view .LVU105
 359 004a C4F81700 		str	r0, [r4, #23]	@ unaligned
  26:Core/HAL/driver/com/can_recv.c ****     obj->recv_len = 0;
 360              		.loc 1 26 5 is_stmt 1 view .LVU106
  26:Core/HAL/driver/com/can_recv.c ****     obj->recv_len = 0;
 361              		.loc 1 26 19 is_stmt 0 view .LVU107
 362 004e 0023     		movs	r3, #0
 363 0050 2375     		strb	r3, [r4, #20]
  27:Core/HAL/driver/com/can_recv.c ****     obj->recv_status = 0;
 364              		.loc 1 27 5 is_stmt 1 view .LVU108
  27:Core/HAL/driver/com/can_recv.c ****     obj->recv_status = 0;
 365              		.loc 1 27 22 is_stmt 0 view .LVU109
 366 0052 6375     		strb	r3, [r4, #21]
  28:Core/HAL/driver/com/can_recv.c ****     obj->data_updated = 0;
 367              		.loc 1 28 5 is_stmt 1 view .LVU110
  28:Core/HAL/driver/com/can_recv.c ****     obj->data_updated = 0;
 368              		.loc 1 28 23 is_stmt 0 view .LVU111
 369 0054 A375     		strb	r3, [r4, #22]
  29:Core/HAL/driver/com/can_recv.c ****     cvector_pushback(can_recv_instances, &obj);
 370              		.loc 1 29 5 is_stmt 1 view .LVU112
 371 0056 01A9     		add	r1, sp, #4
 372 0058 094B     		ldr	r3, .L19
 373 005a 1868     		ldr	r0, [r3]
 374 005c FFF7FEFF 		bl	cvector_pushback
 375              	.LVL25:
  30:Core/HAL/driver/com/can_recv.c ****     BSP_CAN_AddFilter(obj->config.bsp_can_index, obj->config.can_identifier);
 376              		.loc 1 30 5 view .LVU113
  30:Core/HAL/driver/com/can_recv.c ****     BSP_CAN_AddFilter(obj->config.bsp_can_index, obj->config.can_identifier);
 377              		.loc 1 30 26 is_stmt 0 view .LVU114
 378 0060 019B     		ldr	r3, [sp, #4]
  30:Core/HAL/driver/com/can_recv.c ****     BSP_CAN_AddFilter(obj->config.bsp_can_index, obj->config.can_identifier);
 379              		.loc 1 30 5 view .LVU115
ARM GAS  C:\Users\lenovo\AppData\Local\Temp\cchf8eNQ.s 			page 10


 380 0062 5988     		ldrh	r1, [r3, #2]	@ unaligned
 381 0064 1878     		ldrb	r0, [r3]	@ zero_extendqisi2
 382 0066 FFF7FEFF 		bl	BSP_CAN_AddFilter
 383              	.LVL26:
  31:Core/HAL/driver/com/can_recv.c ****     obj->monitor = Monitor_Register(obj->config.lost_callback, 20, obj);
 384              		.loc 1 31 5 is_stmt 1 view .LVU116
  31:Core/HAL/driver/com/can_recv.c ****     obj->monitor = Monitor_Register(obj->config.lost_callback, 20, obj);
 385              		.loc 1 31 40 is_stmt 0 view .LVU117
 386 006a 019C     		ldr	r4, [sp, #4]
  31:Core/HAL/driver/com/can_recv.c ****     obj->monitor = Monitor_Register(obj->config.lost_callback, 20, obj);
 387              		.loc 1 31 20 view .LVU118
 388 006c 2246     		mov	r2, r4
 389 006e 1421     		movs	r1, #20
 390 0070 A068     		ldr	r0, [r4, #8]	@ unaligned
 391 0072 FFF7FEFF 		bl	Monitor_Register
 392              	.LVL27:
  31:Core/HAL/driver/com/can_recv.c ****     obj->monitor = Monitor_Register(obj->config.lost_callback, 20, obj);
 393              		.loc 1 31 18 view .LVU119
 394 0076 C4F81B00 		str	r0, [r4, #27]	@ unaligned
  32:Core/HAL/driver/com/can_recv.c ****     return obj;
 395              		.loc 1 32 5 is_stmt 1 view .LVU120
  33:Core/HAL/driver/com/can_recv.c **** }
 396              		.loc 1 33 1 is_stmt 0 view .LVU121
 397 007a 0198     		ldr	r0, [sp, #4]
 398 007c 03B0     		add	sp, sp, #12
 399              	.LCFI4:
 400              		.cfi_def_cfa_offset 12
 401              		@ sp needed
 402 007e 30BD     		pop	{r4, r5, pc}
 403              	.L20:
 404              		.align	2
 405              	.L19:
 406 0080 00000000 		.word	.LANCHOR0
 407              		.cfi_endproc
 408              	.LFE4:
 410              		.global	can_recv_instances
 411              		.section	.bss.can_recv_instances,"aw",%nobits
 412              		.align	2
 413              		.set	.LANCHOR0,. + 0
 416              	can_recv_instances:
 417 0000 00000000 		.space	4
 418              		.text
 419              	.Letext0:
 420              		.file 2 "d:\\gcc-arm-none-eabi\\arm-none-eabi\\include\\machine\\_default_types.h"
 421              		.file 3 "d:\\gcc-arm-none-eabi\\arm-none-eabi\\include\\sys\\_stdint.h"
 422              		.file 4 "Core/HAL/lib/datatypes.h"
 423              		.file 5 "Core/BSP/bsp_supervise.h"
 424              		.file 6 "Core/HAL/monitor/monitor.h"
 425              		.file 7 "Core/HAL/driver/com/can_recv.h"
 426              		.file 8 "d:\\gcc-arm-none-eabi\\lib\\gcc\\arm-none-eabi\\10.3.1\\include\\stddef.h"
 427              		.file 9 "Core/HAL/lib/cvector.h"
 428              		.file 10 "d:\\gcc-arm-none-eabi\\arm-none-eabi\\include\\stdlib.h"
 429              		.file 11 "<built-in>"
 430              		.file 12 "Core/BSP/interface/bsp_can.h"
ARM GAS  C:\Users\lenovo\AppData\Local\Temp\cchf8eNQ.s 			page 11

