ARM GAS  C:\Users\lenovo\AppData\Local\Temp\ccGrNfEa.s 			page 1


   1              		.cpu cortex-m4
   2              		.arch armv7e-m
   3              		.fpu fpv4-sp-d16
   4              		.eabi_attribute 27, 1
   5              		.eabi_attribute 28, 1
   6              		.eabi_attribute 20, 1
   7              		.eabi_attribute 21, 1
   8              		.eabi_attribute 23, 3
   9              		.eabi_attribute 24, 1
  10              		.eabi_attribute 25, 1
  11              		.eabi_attribute 26, 1
  12              		.eabi_attribute 30, 1
  13              		.eabi_attribute 34, 1
  14              		.eabi_attribute 18, 4
  15              		.file	"uart_recv.c"
  16              		.text
  17              	.Ltext0:
  18              		.cfi_sections	.debug_frame
  19              		.section	.text.UartRecv_RxCallBack,"ax",%progbits
  20              		.align	1
  21              		.global	UartRecv_RxCallBack
  22              		.syntax unified
  23              		.thumb
  24              		.thumb_func
  26              	UartRecv_RxCallBack:
  27              	.LVL0:
  28              	.LFB135:
  29              		.file 1 "Core/HAL/driver/com/uart_recv.c"
   1:Core/HAL/driver/com/uart_recv.c **** #include "uart_recv.h"
   2:Core/HAL/driver/com/uart_recv.c **** 
   3:Core/HAL/driver/com/uart_recv.c **** #include "bsp_uart.h"
   4:Core/HAL/driver/com/uart_recv.c **** #include "bsp_def.h"
   5:Core/HAL/driver/com/uart_recv.c **** #include "soft_crc.h"
   6:Core/HAL/driver/com/uart_recv.c **** #include "cvector.h"
   7:Core/HAL/driver/com/uart_recv.c **** #include "stdio.h"
   8:Core/HAL/driver/com/uart_recv.c **** 
   9:Core/HAL/driver/com/uart_recv.c **** cvector* uart_recv_instances;
  10:Core/HAL/driver/com/uart_recv.c **** 
  11:Core/HAL/driver/com/uart_recv.c **** void UartRecv_RxCallBack(uint8_t uart_index, uint8_t* data, uint32_t len);
  12:Core/HAL/driver/com/uart_recv.c **** 
  13:Core/HAL/driver/com/uart_recv.c **** void UartRecv_Driver_Init() {
  14:Core/HAL/driver/com/uart_recv.c ****     uart_recv_instances = cvector_create(sizeof(uart_recv*));
  15:Core/HAL/driver/com/uart_recv.c ****     BSP_UART_RegisterRxCallback(2, UartRecv_RxCallBack);
  16:Core/HAL/driver/com/uart_recv.c **** }
  17:Core/HAL/driver/com/uart_recv.c **** 
  18:Core/HAL/driver/com/uart_recv.c **** uart_recv* UartRecv_Create(uart_recv_config* config) {
  19:Core/HAL/driver/com/uart_recv.c ****     uart_recv* obj = (uart_recv*)malloc(sizeof(uart_recv));
  20:Core/HAL/driver/com/uart_recv.c ****     memset(obj,0,sizeof(uart_recv));
  21:Core/HAL/driver/com/uart_recv.c ****     obj->config = *config;
  22:Core/HAL/driver/com/uart_recv.c ****     obj->data_rx.len = obj->config.data_len;
  23:Core/HAL/driver/com/uart_recv.c ****     obj->data_rx.data = (uint8_t*)malloc(obj->config.data_len);
  24:Core/HAL/driver/com/uart_recv.c ****     memset(obj->data_rx.data,0,obj->config.data_len);
  25:Core/HAL/driver/com/uart_recv.c ****     //起始s结束e 2位，crc16 2位，len 1位
  26:Core/HAL/driver/com/uart_recv.c ****     obj->buf_len = obj->config.data_len + 5;
  27:Core/HAL/driver/com/uart_recv.c ****     obj->rxbuf = (uint8_t*) malloc(obj->buf_len);
  28:Core/HAL/driver/com/uart_recv.c ****     obj->recv_len = 0;
  29:Core/HAL/driver/com/uart_recv.c ****     obj->recv_status = 0;
ARM GAS  C:\Users\lenovo\AppData\Local\Temp\ccGrNfEa.s 			page 2


  30:Core/HAL/driver/com/uart_recv.c ****     obj->data_updated = 0;
  31:Core/HAL/driver/com/uart_recv.c ****     cvector_pushback(uart_recv_instances,&obj);
  32:Core/HAL/driver/com/uart_recv.c ****     obj->monitor = Monitor_Register(obj->config.lost_callback, 20, obj);
  33:Core/HAL/driver/com/uart_recv.c ****     return obj;
  34:Core/HAL/driver/com/uart_recv.c **** }
  35:Core/HAL/driver/com/uart_recv.c **** 
  36:Core/HAL/driver/com/uart_recv.c **** void UartRecv_RxCallBack(uint8_t uart_index, uint8_t* data, uint32_t len){
  30              		.loc 1 36 74 view -0
  31              		.cfi_startproc
  32              		@ args = 0, pretend = 0, frame = 0
  33              		@ frame_needed = 0, uses_anonymous_args = 0
  34              		.loc 1 36 74 is_stmt 0 view .LVU1
  35 0000 2DE9F041 		push	{r4, r5, r6, r7, r8, lr}
  36              	.LCFI0:
  37              		.cfi_def_cfa_offset 24
  38              		.cfi_offset 4, -24
  39              		.cfi_offset 5, -20
  40              		.cfi_offset 6, -16
  41              		.cfi_offset 7, -12
  42              		.cfi_offset 8, -8
  43              		.cfi_offset 14, -4
  44 0004 0646     		mov	r6, r0
  45 0006 0F46     		mov	r7, r1
  46 0008 9046     		mov	r8, r2
  37:Core/HAL/driver/com/uart_recv.c ****     for(size_t i = 0;i < uart_recv_instances->cv_len;++i){
  47              		.loc 1 37 5 is_stmt 1 view .LVU2
  48              	.LBB2:
  49              		.loc 1 37 9 view .LVU3
  50              	.LVL1:
  51              		.loc 1 37 16 is_stmt 0 view .LVU4
  52 000a 0024     		movs	r4, #0
  53              		.loc 1 37 5 view .LVU5
  54 000c 11E0     		b	.L2
  55              	.LVL2:
  56              	.L10:
  57              	.LBB3:
  38:Core/HAL/driver/com/uart_recv.c ****         uart_recv* now = *(uart_recv**)cvector_val_at(uart_recv_instances,i);
  39:Core/HAL/driver/com/uart_recv.c ****         if(now->config.bsp_uart_index == uart_index){
  40:Core/HAL/driver/com/uart_recv.c ****             if(data[0] == 's'){
  41:Core/HAL/driver/com/uart_recv.c ****                 now->recv_status = 1;
  58              		.loc 1 41 17 is_stmt 1 view .LVU6
  59              		.loc 1 41 34 is_stmt 0 view .LVU7
  60 000e 0123     		movs	r3, #1
  61 0010 EB74     		strb	r3, [r5, #19]
  62 0012 1DE0     		b	.L4
  63              	.L5:
  42:Core/HAL/driver/com/uart_recv.c ****             }
  43:Core/HAL/driver/com/uart_recv.c ****             if(now->recv_status){
  44:Core/HAL/driver/com/uart_recv.c ****                 if(now->recv_len + len > now->buf_len){
  45:Core/HAL/driver/com/uart_recv.c ****                     now->recv_status = 0;
  46:Core/HAL/driver/com/uart_recv.c ****                     now->recv_len = 0;
  47:Core/HAL/driver/com/uart_recv.c ****                     continue;
  48:Core/HAL/driver/com/uart_recv.c ****                 }
  49:Core/HAL/driver/com/uart_recv.c ****                 memcpy(now->rxbuf + now->recv_len,data,len);
  64              		.loc 1 49 17 is_stmt 1 view .LVU8
  65              		.loc 1 49 27 is_stmt 0 view .LVU9
  66 0014 D5F81500 		ldr	r0, [r5, #21]	@ unaligned
ARM GAS  C:\Users\lenovo\AppData\Local\Temp\ccGrNfEa.s 			page 3


  67              		.loc 1 49 17 view .LVU10
  68 0018 4246     		mov	r2, r8
  69 001a 3946     		mov	r1, r7
  70 001c 1844     		add	r0, r0, r3
  71 001e FFF7FEFF 		bl	memcpy
  72              	.LVL3:
  50:Core/HAL/driver/com/uart_recv.c ****                 now->recv_len += len;
  73              		.loc 1 50 17 is_stmt 1 view .LVU11
  74              		.loc 1 50 31 is_stmt 0 view .LVU12
  75 0022 AB7C     		ldrb	r3, [r5, #18]	@ zero_extendqisi2
  76 0024 4344     		add	r3, r3, r8
  77 0026 DBB2     		uxtb	r3, r3
  78 0028 AB74     		strb	r3, [r5, #18]
  51:Core/HAL/driver/com/uart_recv.c ****                 if(now->recv_len == now->buf_len && now->rxbuf[now->recv_len - 1] == 'e'){
  79              		.loc 1 51 17 is_stmt 1 view .LVU13
  80              		.loc 1 51 40 is_stmt 0 view .LVU14
  81 002a 697C     		ldrb	r1, [r5, #17]	@ zero_extendqisi2
  82              		.loc 1 51 19 view .LVU15
  83 002c 8B42     		cmp	r3, r1
  84 002e 1CD0     		beq	.L8
  85              	.L3:
  86              		.loc 1 51 19 view .LVU16
  87              	.LBE3:
  37:Core/HAL/driver/com/uart_recv.c ****         uart_recv* now = *(uart_recv**)cvector_val_at(uart_recv_instances,i);
  88              		.loc 1 37 54 is_stmt 1 discriminator 2 view .LVU17
  89 0030 0134     		adds	r4, r4, #1
  90              	.LVL4:
  91              	.L2:
  37:Core/HAL/driver/com/uart_recv.c ****         uart_recv* now = *(uart_recv**)cvector_val_at(uart_recv_instances,i);
  92              		.loc 1 37 22 discriminator 1 view .LVU18
  37:Core/HAL/driver/com/uart_recv.c ****         uart_recv* now = *(uart_recv**)cvector_val_at(uart_recv_instances,i);
  93              		.loc 1 37 45 is_stmt 0 discriminator 1 view .LVU19
  94 0032 214B     		ldr	r3, .L11
  95 0034 1868     		ldr	r0, [r3]
  96 0036 4368     		ldr	r3, [r0, #4]	@ unaligned
  37:Core/HAL/driver/com/uart_recv.c ****         uart_recv* now = *(uart_recv**)cvector_val_at(uart_recv_instances,i);
  97              		.loc 1 37 5 discriminator 1 view .LVU20
  98 0038 A342     		cmp	r3, r4
  99 003a 3AD9     		bls	.L9
 100              	.LBB4:
  38:Core/HAL/driver/com/uart_recv.c ****         if(now->config.bsp_uart_index == uart_index){
 101              		.loc 1 38 9 is_stmt 1 view .LVU21
  38:Core/HAL/driver/com/uart_recv.c ****         if(now->config.bsp_uart_index == uart_index){
 102              		.loc 1 38 40 is_stmt 0 view .LVU22
 103 003c 2146     		mov	r1, r4
 104 003e FFF7FEFF 		bl	cvector_val_at
 105              	.LVL5:
  38:Core/HAL/driver/com/uart_recv.c ****         if(now->config.bsp_uart_index == uart_index){
 106              		.loc 1 38 20 view .LVU23
 107 0042 0568     		ldr	r5, [r0]
 108              	.LVL6:
  39:Core/HAL/driver/com/uart_recv.c ****             if(data[0] == 's'){
 109              		.loc 1 39 9 is_stmt 1 view .LVU24
  39:Core/HAL/driver/com/uart_recv.c ****             if(data[0] == 's'){
 110              		.loc 1 39 23 is_stmt 0 view .LVU25
 111 0044 2B78     		ldrb	r3, [r5]	@ zero_extendqisi2
  39:Core/HAL/driver/com/uart_recv.c ****             if(data[0] == 's'){
ARM GAS  C:\Users\lenovo\AppData\Local\Temp\ccGrNfEa.s 			page 4


 112              		.loc 1 39 11 view .LVU26
 113 0046 B342     		cmp	r3, r6
 114 0048 F2D1     		bne	.L3
  40:Core/HAL/driver/com/uart_recv.c ****                 now->recv_status = 1;
 115              		.loc 1 40 13 is_stmt 1 view .LVU27
  40:Core/HAL/driver/com/uart_recv.c ****                 now->recv_status = 1;
 116              		.loc 1 40 20 is_stmt 0 view .LVU28
 117 004a 3B78     		ldrb	r3, [r7]	@ zero_extendqisi2
  40:Core/HAL/driver/com/uart_recv.c ****                 now->recv_status = 1;
 118              		.loc 1 40 15 view .LVU29
 119 004c 732B     		cmp	r3, #115
 120 004e DED0     		beq	.L10
 121              	.L4:
  43:Core/HAL/driver/com/uart_recv.c ****                 if(now->recv_len + len > now->buf_len){
 122              		.loc 1 43 13 is_stmt 1 view .LVU30
  43:Core/HAL/driver/com/uart_recv.c ****                 if(now->recv_len + len > now->buf_len){
 123              		.loc 1 43 19 is_stmt 0 view .LVU31
 124 0050 EB7C     		ldrb	r3, [r5, #19]	@ zero_extendqisi2
  43:Core/HAL/driver/com/uart_recv.c ****                 if(now->recv_len + len > now->buf_len){
 125              		.loc 1 43 15 view .LVU32
 126 0052 002B     		cmp	r3, #0
 127 0054 ECD0     		beq	.L3
  44:Core/HAL/driver/com/uart_recv.c ****                     now->recv_status = 0;
 128              		.loc 1 44 17 is_stmt 1 view .LVU33
  44:Core/HAL/driver/com/uart_recv.c ****                     now->recv_status = 0;
 129              		.loc 1 44 23 is_stmt 0 view .LVU34
 130 0056 AB7C     		ldrb	r3, [r5, #18]	@ zero_extendqisi2
  44:Core/HAL/driver/com/uart_recv.c ****                     now->recv_status = 0;
 131              		.loc 1 44 34 view .LVU35
 132 0058 03EB0801 		add	r1, r3, r8
  44:Core/HAL/driver/com/uart_recv.c ****                     now->recv_status = 0;
 133              		.loc 1 44 45 view .LVU36
 134 005c 6A7C     		ldrb	r2, [r5, #17]	@ zero_extendqisi2
  44:Core/HAL/driver/com/uart_recv.c ****                     now->recv_status = 0;
 135              		.loc 1 44 19 view .LVU37
 136 005e 9142     		cmp	r1, r2
 137 0060 D8D9     		bls	.L5
  45:Core/HAL/driver/com/uart_recv.c ****                     now->recv_len = 0;
 138              		.loc 1 45 21 is_stmt 1 view .LVU38
  45:Core/HAL/driver/com/uart_recv.c ****                     now->recv_len = 0;
 139              		.loc 1 45 38 is_stmt 0 view .LVU39
 140 0062 0023     		movs	r3, #0
 141 0064 EB74     		strb	r3, [r5, #19]
  46:Core/HAL/driver/com/uart_recv.c ****                     continue;
 142              		.loc 1 46 21 is_stmt 1 view .LVU40
  46:Core/HAL/driver/com/uart_recv.c ****                     continue;
 143              		.loc 1 46 35 is_stmt 0 view .LVU41
 144 0066 AB74     		strb	r3, [r5, #18]
  47:Core/HAL/driver/com/uart_recv.c ****                 }
 145              		.loc 1 47 21 is_stmt 1 view .LVU42
 146 0068 E2E7     		b	.L3
 147              	.L8:
 148              		.loc 1 51 56 is_stmt 0 discriminator 1 view .LVU43
 149 006a D5F81500 		ldr	r0, [r5, #21]	@ unaligned
 150              		.loc 1 51 63 discriminator 1 view .LVU44
 151 006e 0344     		add	r3, r3, r0
 152 0070 13F8013C 		ldrb	r3, [r3, #-1]	@ zero_extendqisi2
ARM GAS  C:\Users\lenovo\AppData\Local\Temp\ccGrNfEa.s 			page 5


 153              		.loc 1 51 50 discriminator 1 view .LVU45
 154 0074 652B     		cmp	r3, #101
 155 0076 DBD1     		bne	.L3
  52:Core/HAL/driver/com/uart_recv.c ****                     if(CheckVaild(now->rxbuf + 1,now->buf_len - 2)){
 156              		.loc 1 52 21 is_stmt 1 view .LVU46
 157              		.loc 1 52 24 is_stmt 0 view .LVU47
 158 0078 0239     		subs	r1, r1, #2
 159 007a 0130     		adds	r0, r0, #1
 160 007c FFF7FEFF 		bl	CheckVaild
 161              	.LVL7:
 162              		.loc 1 52 23 view .LVU48
 163 0080 0028     		cmp	r0, #0
 164 0082 D5D0     		beq	.L3
  53:Core/HAL/driver/com/uart_recv.c ****                         BufferToData(now->rxbuf + 1,&now->data_rx);
 165              		.loc 1 53 25 is_stmt 1 view .LVU49
 166              		.loc 1 53 41 is_stmt 0 view .LVU50
 167 0084 D5F81500 		ldr	r0, [r5, #21]	@ unaligned
 168              		.loc 1 53 25 view .LVU51
 169 0088 05F10A01 		add	r1, r5, #10
 170 008c 0130     		adds	r0, r0, #1
 171 008e FFF7FEFF 		bl	BufferToData
 172              	.LVL8:
  54:Core/HAL/driver/com/uart_recv.c ****                         now->recv_status = 0;
 173              		.loc 1 54 25 is_stmt 1 view .LVU52
 174              		.loc 1 54 42 is_stmt 0 view .LVU53
 175 0092 0023     		movs	r3, #0
 176 0094 EB74     		strb	r3, [r5, #19]
  55:Core/HAL/driver/com/uart_recv.c ****                         now->recv_len = 0;
 177              		.loc 1 55 25 is_stmt 1 view .LVU54
 178              		.loc 1 55 39 is_stmt 0 view .LVU55
 179 0096 AB74     		strb	r3, [r5, #18]
  56:Core/HAL/driver/com/uart_recv.c ****                         now->data_updated = 1;
 180              		.loc 1 56 25 is_stmt 1 view .LVU56
 181              		.loc 1 56 43 is_stmt 0 view .LVU57
 182 0098 0123     		movs	r3, #1
 183 009a 2B75     		strb	r3, [r5, #20]
  57:Core/HAL/driver/com/uart_recv.c ****                         now->monitor->reset(now->monitor);
 184              		.loc 1 57 25 is_stmt 1 view .LVU58
 185              		.loc 1 57 28 is_stmt 0 view .LVU59
 186 009c D5F81900 		ldr	r0, [r5, #25]	@ unaligned
 187              		.loc 1 57 37 view .LVU60
 188 00a0 C368     		ldr	r3, [r0, #12]	@ unaligned
 189              		.loc 1 57 25 view .LVU61
 190 00a2 9847     		blx	r3
 191              	.LVL9:
  58:Core/HAL/driver/com/uart_recv.c ****                         if(now->config.notify_func != NULL){
 192              		.loc 1 58 25 is_stmt 1 view .LVU62
 193              		.loc 1 58 39 is_stmt 0 view .LVU63
 194 00a4 D5F80230 		ldr	r3, [r5, #2]	@ unaligned
 195              		.loc 1 58 27 view .LVU64
 196 00a8 002B     		cmp	r3, #0
 197 00aa C1D0     		beq	.L3
  59:Core/HAL/driver/com/uart_recv.c ****                             now->config.notify_func(now);
 198              		.loc 1 59 29 is_stmt 1 view .LVU65
 199 00ac 2846     		mov	r0, r5
 200 00ae 9847     		blx	r3
 201              	.LVL10:
ARM GAS  C:\Users\lenovo\AppData\Local\Temp\ccGrNfEa.s 			page 6


 202 00b0 BEE7     		b	.L3
 203              	.LVL11:
 204              	.L9:
 205              		.loc 1 59 29 is_stmt 0 view .LVU66
 206              	.LBE4:
 207              	.LBE2:
  60:Core/HAL/driver/com/uart_recv.c ****                         }
  61:Core/HAL/driver/com/uart_recv.c ****                     }
  62:Core/HAL/driver/com/uart_recv.c ****                 }
  63:Core/HAL/driver/com/uart_recv.c ****             }
  64:Core/HAL/driver/com/uart_recv.c ****         }
  65:Core/HAL/driver/com/uart_recv.c ****     }
  66:Core/HAL/driver/com/uart_recv.c **** }
 208              		.loc 1 66 1 view .LVU67
 209 00b2 BDE8F081 		pop	{r4, r5, r6, r7, r8, pc}
 210              	.LVL12:
 211              	.L12:
 212              		.loc 1 66 1 view .LVU68
 213 00b6 00BF     		.align	2
 214              	.L11:
 215 00b8 00000000 		.word	.LANCHOR0
 216              		.cfi_endproc
 217              	.LFE135:
 219              		.section	.text.UartRecv_Driver_Init,"ax",%progbits
 220              		.align	1
 221              		.global	UartRecv_Driver_Init
 222              		.syntax unified
 223              		.thumb
 224              		.thumb_func
 226              	UartRecv_Driver_Init:
 227              	.LFB133:
  13:Core/HAL/driver/com/uart_recv.c ****     uart_recv_instances = cvector_create(sizeof(uart_recv*));
 228              		.loc 1 13 29 is_stmt 1 view -0
 229              		.cfi_startproc
 230              		@ args = 0, pretend = 0, frame = 0
 231              		@ frame_needed = 0, uses_anonymous_args = 0
 232 0000 08B5     		push	{r3, lr}
 233              	.LCFI1:
 234              		.cfi_def_cfa_offset 8
 235              		.cfi_offset 3, -8
 236              		.cfi_offset 14, -4
  14:Core/HAL/driver/com/uart_recv.c ****     BSP_UART_RegisterRxCallback(2, UartRecv_RxCallBack);
 237              		.loc 1 14 5 view .LVU70
  14:Core/HAL/driver/com/uart_recv.c ****     BSP_UART_RegisterRxCallback(2, UartRecv_RxCallBack);
 238              		.loc 1 14 27 is_stmt 0 view .LVU71
 239 0002 0420     		movs	r0, #4
 240 0004 FFF7FEFF 		bl	cvector_create
 241              	.LVL13:
  14:Core/HAL/driver/com/uart_recv.c ****     BSP_UART_RegisterRxCallback(2, UartRecv_RxCallBack);
 242              		.loc 1 14 25 view .LVU72
 243 0008 034B     		ldr	r3, .L15
 244 000a 1860     		str	r0, [r3]
  15:Core/HAL/driver/com/uart_recv.c **** }
 245              		.loc 1 15 5 is_stmt 1 view .LVU73
 246 000c 0349     		ldr	r1, .L15+4
 247 000e 0220     		movs	r0, #2
 248 0010 FFF7FEFF 		bl	BSP_UART_RegisterRxCallback
ARM GAS  C:\Users\lenovo\AppData\Local\Temp\ccGrNfEa.s 			page 7


 249              	.LVL14:
  16:Core/HAL/driver/com/uart_recv.c **** 
 250              		.loc 1 16 1 is_stmt 0 view .LVU74
 251 0014 08BD     		pop	{r3, pc}
 252              	.L16:
 253 0016 00BF     		.align	2
 254              	.L15:
 255 0018 00000000 		.word	.LANCHOR0
 256 001c 00000000 		.word	UartRecv_RxCallBack
 257              		.cfi_endproc
 258              	.LFE133:
 260              		.section	.text.UartRecv_Create,"ax",%progbits
 261              		.align	1
 262              		.global	UartRecv_Create
 263              		.syntax unified
 264              		.thumb
 265              		.thumb_func
 267              	UartRecv_Create:
 268              	.LVL15:
 269              	.LFB134:
  18:Core/HAL/driver/com/uart_recv.c ****     uart_recv* obj = (uart_recv*)malloc(sizeof(uart_recv));
 270              		.loc 1 18 54 is_stmt 1 view -0
 271              		.cfi_startproc
 272              		@ args = 0, pretend = 0, frame = 8
 273              		@ frame_needed = 0, uses_anonymous_args = 0
  18:Core/HAL/driver/com/uart_recv.c ****     uart_recv* obj = (uart_recv*)malloc(sizeof(uart_recv));
 274              		.loc 1 18 54 is_stmt 0 view .LVU76
 275 0000 30B5     		push	{r4, r5, lr}
 276              	.LCFI2:
 277              		.cfi_def_cfa_offset 12
 278              		.cfi_offset 4, -12
 279              		.cfi_offset 5, -8
 280              		.cfi_offset 14, -4
 281 0002 83B0     		sub	sp, sp, #12
 282              	.LCFI3:
 283              		.cfi_def_cfa_offset 24
 284 0004 0446     		mov	r4, r0
  19:Core/HAL/driver/com/uart_recv.c ****     memset(obj,0,sizeof(uart_recv));
 285              		.loc 1 19 5 is_stmt 1 view .LVU77
  19:Core/HAL/driver/com/uart_recv.c ****     memset(obj,0,sizeof(uart_recv));
 286              		.loc 1 19 34 is_stmt 0 view .LVU78
 287 0006 1D20     		movs	r0, #29
 288              	.LVL16:
  19:Core/HAL/driver/com/uart_recv.c ****     memset(obj,0,sizeof(uart_recv));
 289              		.loc 1 19 34 view .LVU79
 290 0008 FFF7FEFF 		bl	malloc
 291              	.LVL17:
  19:Core/HAL/driver/com/uart_recv.c ****     memset(obj,0,sizeof(uart_recv));
 292              		.loc 1 19 16 view .LVU80
 293 000c 0190     		str	r0, [sp, #4]
  20:Core/HAL/driver/com/uart_recv.c ****     obj->config = *config;
 294              		.loc 1 20 5 is_stmt 1 view .LVU81
 295 000e 1D22     		movs	r2, #29
 296 0010 0021     		movs	r1, #0
 297 0012 FFF7FEFF 		bl	memset
 298              	.LVL18:
  21:Core/HAL/driver/com/uart_recv.c ****     obj->data_rx.len = obj->config.data_len;
ARM GAS  C:\Users\lenovo\AppData\Local\Temp\ccGrNfEa.s 			page 8


 299              		.loc 1 21 5 view .LVU82
  21:Core/HAL/driver/com/uart_recv.c ****     obj->data_rx.len = obj->config.data_len;
 300              		.loc 1 21 8 is_stmt 0 view .LVU83
 301 0016 019B     		ldr	r3, [sp, #4]
  21:Core/HAL/driver/com/uart_recv.c ****     obj->data_rx.len = obj->config.data_len;
 302              		.loc 1 21 17 view .LVU84
 303 0018 2168     		ldr	r1, [r4]	@ unaligned
 304 001a 6268     		ldr	r2, [r4, #4]	@ unaligned
 305 001c 1960     		str	r1, [r3]	@ unaligned
 306 001e 5A60     		str	r2, [r3, #4]	@ unaligned
 307 0020 2289     		ldrh	r2, [r4, #8]	@ unaligned
 308 0022 1A81     		strh	r2, [r3, #8]	@ unaligned
  22:Core/HAL/driver/com/uart_recv.c ****     obj->data_rx.data = (uint8_t*)malloc(obj->config.data_len);
 309              		.loc 1 22 5 is_stmt 1 view .LVU85
  22:Core/HAL/driver/com/uart_recv.c ****     obj->data_rx.data = (uint8_t*)malloc(obj->config.data_len);
 310              		.loc 1 22 27 is_stmt 0 view .LVU86
 311 0024 019D     		ldr	r5, [sp, #4]
  22:Core/HAL/driver/com/uart_recv.c ****     obj->data_rx.data = (uint8_t*)malloc(obj->config.data_len);
 312              		.loc 1 22 35 view .LVU87
 313 0026 6C78     		ldrb	r4, [r5, #1]	@ zero_extendqisi2
 314              	.LVL19:
  22:Core/HAL/driver/com/uart_recv.c ****     obj->data_rx.data = (uint8_t*)malloc(obj->config.data_len);
 315              		.loc 1 22 22 view .LVU88
 316 0028 AC72     		strb	r4, [r5, #10]
  23:Core/HAL/driver/com/uart_recv.c ****     memset(obj->data_rx.data,0,obj->config.data_len);
 317              		.loc 1 23 5 is_stmt 1 view .LVU89
  23:Core/HAL/driver/com/uart_recv.c ****     memset(obj->data_rx.data,0,obj->config.data_len);
 318              		.loc 1 23 35 is_stmt 0 view .LVU90
 319 002a 2046     		mov	r0, r4
 320 002c FFF7FEFF 		bl	malloc
 321              	.LVL20:
  23:Core/HAL/driver/com/uart_recv.c ****     memset(obj->data_rx.data,0,obj->config.data_len);
 322              		.loc 1 23 23 view .LVU91
 323 0030 C5F80B00 		str	r0, [r5, #11]	@ unaligned
  24:Core/HAL/driver/com/uart_recv.c ****     //起始s结束e 2位，crc16 2位，len 1位
 324              		.loc 1 24 5 is_stmt 1 view .LVU92
 325 0034 2246     		mov	r2, r4
 326 0036 0021     		movs	r1, #0
 327 0038 FFF7FEFF 		bl	memset
 328              	.LVL21:
  26:Core/HAL/driver/com/uart_recv.c ****     obj->rxbuf = (uint8_t*) malloc(obj->buf_len);
 329              		.loc 1 26 5 view .LVU93
  26:Core/HAL/driver/com/uart_recv.c ****     obj->rxbuf = (uint8_t*) malloc(obj->buf_len);
 330              		.loc 1 26 23 is_stmt 0 view .LVU94
 331 003c 019C     		ldr	r4, [sp, #4]
  26:Core/HAL/driver/com/uart_recv.c ****     obj->rxbuf = (uint8_t*) malloc(obj->buf_len);
 332              		.loc 1 26 31 view .LVU95
 333 003e 6078     		ldrb	r0, [r4, #1]	@ zero_extendqisi2
  26:Core/HAL/driver/com/uart_recv.c ****     obj->rxbuf = (uint8_t*) malloc(obj->buf_len);
 334              		.loc 1 26 41 view .LVU96
 335 0040 0530     		adds	r0, r0, #5
 336 0042 C0B2     		uxtb	r0, r0
  26:Core/HAL/driver/com/uart_recv.c ****     obj->rxbuf = (uint8_t*) malloc(obj->buf_len);
 337              		.loc 1 26 18 view .LVU97
 338 0044 6074     		strb	r0, [r4, #17]
  27:Core/HAL/driver/com/uart_recv.c ****     obj->recv_len = 0;
 339              		.loc 1 27 5 is_stmt 1 view .LVU98
ARM GAS  C:\Users\lenovo\AppData\Local\Temp\ccGrNfEa.s 			page 9


  27:Core/HAL/driver/com/uart_recv.c ****     obj->recv_len = 0;
 340              		.loc 1 27 29 is_stmt 0 view .LVU99
 341 0046 FFF7FEFF 		bl	malloc
 342              	.LVL22:
  27:Core/HAL/driver/com/uart_recv.c ****     obj->recv_len = 0;
 343              		.loc 1 27 16 view .LVU100
 344 004a C4F81500 		str	r0, [r4, #21]	@ unaligned
  28:Core/HAL/driver/com/uart_recv.c ****     obj->recv_status = 0;
 345              		.loc 1 28 5 is_stmt 1 view .LVU101
  28:Core/HAL/driver/com/uart_recv.c ****     obj->recv_status = 0;
 346              		.loc 1 28 19 is_stmt 0 view .LVU102
 347 004e 0023     		movs	r3, #0
 348 0050 A374     		strb	r3, [r4, #18]
  29:Core/HAL/driver/com/uart_recv.c ****     obj->data_updated = 0;
 349              		.loc 1 29 5 is_stmt 1 view .LVU103
  29:Core/HAL/driver/com/uart_recv.c ****     obj->data_updated = 0;
 350              		.loc 1 29 22 is_stmt 0 view .LVU104
 351 0052 E374     		strb	r3, [r4, #19]
  30:Core/HAL/driver/com/uart_recv.c ****     cvector_pushback(uart_recv_instances,&obj);
 352              		.loc 1 30 5 is_stmt 1 view .LVU105
  30:Core/HAL/driver/com/uart_recv.c ****     cvector_pushback(uart_recv_instances,&obj);
 353              		.loc 1 30 23 is_stmt 0 view .LVU106
 354 0054 2375     		strb	r3, [r4, #20]
  31:Core/HAL/driver/com/uart_recv.c ****     obj->monitor = Monitor_Register(obj->config.lost_callback, 20, obj);
 355              		.loc 1 31 5 is_stmt 1 view .LVU107
 356 0056 01A9     		add	r1, sp, #4
 357 0058 074B     		ldr	r3, .L19
 358 005a 1868     		ldr	r0, [r3]
 359 005c FFF7FEFF 		bl	cvector_pushback
 360              	.LVL23:
  32:Core/HAL/driver/com/uart_recv.c ****     return obj;
 361              		.loc 1 32 5 view .LVU108
  32:Core/HAL/driver/com/uart_recv.c ****     return obj;
 362              		.loc 1 32 40 is_stmt 0 view .LVU109
 363 0060 019C     		ldr	r4, [sp, #4]
  32:Core/HAL/driver/com/uart_recv.c ****     return obj;
 364              		.loc 1 32 20 view .LVU110
 365 0062 2246     		mov	r2, r4
 366 0064 1421     		movs	r1, #20
 367 0066 D4F80600 		ldr	r0, [r4, #6]	@ unaligned
 368 006a FFF7FEFF 		bl	Monitor_Register
 369              	.LVL24:
  32:Core/HAL/driver/com/uart_recv.c ****     return obj;
 370              		.loc 1 32 18 view .LVU111
 371 006e C4F81900 		str	r0, [r4, #25]	@ unaligned
  33:Core/HAL/driver/com/uart_recv.c **** }
 372              		.loc 1 33 5 is_stmt 1 view .LVU112
  34:Core/HAL/driver/com/uart_recv.c **** 
 373              		.loc 1 34 1 is_stmt 0 view .LVU113
 374 0072 0198     		ldr	r0, [sp, #4]
 375 0074 03B0     		add	sp, sp, #12
 376              	.LCFI4:
 377              		.cfi_def_cfa_offset 12
 378              		@ sp needed
 379 0076 30BD     		pop	{r4, r5, pc}
 380              	.L20:
 381              		.align	2
ARM GAS  C:\Users\lenovo\AppData\Local\Temp\ccGrNfEa.s 			page 10


 382              	.L19:
 383 0078 00000000 		.word	.LANCHOR0
 384              		.cfi_endproc
 385              	.LFE134:
 387              		.global	uart_recv_instances
 388              		.section	.bss.uart_recv_instances,"aw",%nobits
 389              		.align	2
 390              		.set	.LANCHOR0,. + 0
 393              	uart_recv_instances:
 394 0000 00000000 		.space	4
 395              		.text
 396              	.Letext0:
 397              		.file 2 "d:\\gcc-arm-none-eabi\\arm-none-eabi\\include\\machine\\_default_types.h"
 398              		.file 3 "d:\\gcc-arm-none-eabi\\arm-none-eabi\\include\\sys\\_stdint.h"
 399              		.file 4 "Core/HAL/lib/datatypes.h"
 400              		.file 5 "Core/HAL/monitor/monitor.h"
 401              		.file 6 "Core/HAL/driver/com/uart_recv.h"
 402              		.file 7 "d:\\gcc-arm-none-eabi\\lib\\gcc\\arm-none-eabi\\10.3.1\\include\\stddef.h"
 403              		.file 8 "Core/HAL/lib/cvector.h"
 404              		.file 9 "d:\\gcc-arm-none-eabi\\arm-none-eabi\\include\\stdlib.h"
 405              		.file 10 "<built-in>"
 406              		.file 11 "Core/BSP/interface/bsp_uart.h"
ARM GAS  C:\Users\lenovo\AppData\Local\Temp\ccGrNfEa.s 			page 11

